; Function Attrs: mustprogress uwtable
define hidden noundef nonnull ptr @ncnn_paramdict_get_array(ptr noundef %0, i32 noundef %1, ptr noundef %2) local_unnamed_addr #1 personality ptr @__gxx_personality_v0 {
  %4 = tail call noalias noundef nonnull dereferenceable(72) ptr @_Znwm(i64 noundef 72) #24
  invoke void @_ZNK4ncnn9ParamDict3getEiRKNS_3MatE(ptr dead_on_unwind nonnull writable sret(%"class.ncnn::Mat") align 8 %4, ptr noundef nonnull align 8 dereferenceable(16) %0, i32 noundef %1, ptr noundef nonnull align 8 dereferenceable(72) %2)
          to label %5 unwind label %6

5:                                                ; preds = %3
  ret ptr %4

6:                                                ; preds = %3
  %7 = landingpad { ptr, i32 }
          cleanup
  tail call void @_ZdlPvm(ptr noundef nonnull %4, i64 noundef 72) #25
  resume { ptr, i32 } %7
}